target datalayout = "e-m:e-p270:32:32-p271:32:32-p272:64:64-i64:64-i128:128-f80:128-n8:16:32:64-S128"
target triple = "x86_64-pc-linux-gnu"

%class.ptr_vector = type { %class.vector }
%class.vector = type { ptr }
%"class.mbp::term" = type { %class.obj_ref, ptr, ptr, ptr, i16, %class.ptr_vector, %class.ptr_vector, %"struct.mbp::term::class_props" }
%class.obj_ref = type { ptr, ptr }
%"struct.mbp::term::class_props" = type { i8, i32, %class.bit_vector }
%class.bit_vector = type { i32, i32, ptr }
%class.app = type { %class.expr, ptr, i32, %struct.app_flags, [0 x ptr] }
%class.expr = type { %class.ast }
%class.ast = type { i32, i32, i32, i32 }
%struct.app_flags = type <{ i16, i8, i8 }>
%"class.mbp::term::children" = type { ptr }

; Function Attrs: mustprogress nounwind uwtable
define linkonce_odr hidden noundef i32 @_ZNK6vectorIPN3mbp4termELb0EjE4sizeEv(ptr noundef nonnull align 8 dereferenceable(8) %0) #6 comdat align 2 {
  %2 = alloca i32, align 4
  %3 = alloca ptr, align 8
  store ptr %0, ptr %3, align 8, !tbaa !42
  %4 = load ptr, ptr %3, align 8
  %5 = getelementptr inbounds nuw %class.vector, ptr %4, i32 0, i32 0
  %6 = load ptr, ptr %5, align 8, !tbaa !44
  %7 = icmp eq ptr %6, null
  br i1 %7, label %8, label %9

8:                                                ; preds = %1
  store i32 0, ptr %2, align 4
  br label %14

9:                                                ; preds = %1
  %10 = getelementptr inbounds nuw %class.vector, ptr %4, i32 0, i32 0
  %11 = load ptr, ptr %10, align 8, !tbaa !44
  %12 = getelementptr inbounds i32, ptr %11, i64 -1
  %13 = load i32, ptr %12, align 4, !tbaa !27
  store i32 %13, ptr %2, align 4
  br label %14

14:                                               ; preds = %9, %8
  %15 = load i32, ptr %2, align 4
  ret i32 %15
}

; Function Attrs: mustprogress nounwind uwtable
define linkonce_odr hidden noundef i32 @_ZNK3ast8get_kindEv(ptr noundef nonnull align 4 dereferenceable(16) %0) #6 comdat align 2 {
  %2 = alloca ptr, align 8
  store ptr %0, ptr %2, align 8, !tbaa !68
  %3 = load ptr, ptr %2, align 8
  %4 = getelementptr inbounds nuw %class.ast, ptr %3, i32 0, i32 1
  %5 = load i32, ptr %4, align 4
  %6 = and i32 %5, 65535
  ret i32 %6
}

; Function Attrs: mustprogress uwtable
define linkonce_odr hidden noundef ptr @_ZNK6vectorIPN3mbp4termELb0EjE3endEv(ptr noundef nonnull align 8 dereferenceable(8) %0) #4 comdat align 2 {
  %2 = alloca ptr, align 8
  store ptr %0, ptr %2, align 8, !tbaa !42
  %3 = load ptr, ptr %2, align 8
  %4 = getelementptr inbounds nuw %class.vector, ptr %3, i32 0, i32 0
  %5 = load ptr, ptr %4, align 8, !tbaa !44
  %6 = call noundef i32 @_ZNK6vectorIPN3mbp4termELb0EjE4sizeEv(ptr noundef nonnull align 8 dereferenceable(8) %3)
  %7 = zext i32 %6 to i64
  %8 = getelementptr inbounds nuw ptr, ptr %5, i64 %7
  ret ptr %8
}

; Function Attrs: mustprogress nounwind uwtable
define linkonce_odr hidden noundef ptr @_ZNK6vectorIPN3mbp4termELb0EjE5beginEv(ptr noundef nonnull align 8 dereferenceable(8) %0) #6 comdat align 2 {
  %2 = alloca ptr, align 8
  store ptr %0, ptr %2, align 8, !tbaa !42
  %3 = load ptr, ptr %2, align 8
  %4 = getelementptr inbounds nuw %class.vector, ptr %3, i32 0, i32 0
  %5 = load ptr, ptr %4, align 8, !tbaa !44
  ret ptr %5
}

; Function Attrs: mustprogress nounwind uwtable
define linkonce_odr hidden noundef ptr @_ZNK7obj_refI4expr11ast_managerEptEv(ptr noundef nonnull align 8 dereferenceable(16) %0) #6 comdat align 2 {
  %2 = alloca ptr, align 8
  store ptr %0, ptr %2, align 8, !tbaa !177
  %3 = load ptr, ptr %2, align 8
  %4 = getelementptr inbounds nuw %class.obj_ref, ptr %3, i32 0, i32 0
  %5 = load ptr, ptr %4, align 8, !tbaa !179
  ret ptr %5
}

; Function Attrs: mustprogress nounwind uwtable
define linkonce_odr hidden noundef i32 @_ZNK3ast6get_idEv(ptr noundef nonnull align 4 dereferenceable(16) %0) #6 comdat align 2 {
  %2 = alloca ptr, align 8
  store ptr %0, ptr %2, align 8, !tbaa !68
  %3 = load ptr, ptr %2, align 8
  %4 = getelementptr inbounds nuw %class.ast, ptr %3, i32 0, i32 0
  %5 = load i32, ptr %4, align 4, !tbaa !201
  ret i32 %5
}

; Function Attrs: mustprogress nounwind uwtable
define linkonce_odr hidden noundef ptr @_ZNK3app8get_declEv(ptr noundef nonnull align 8 dereferenceable(32) %0) #6 comdat align 2 {
  %2 = alloca ptr, align 8
  store ptr %0, ptr %2, align 8, !tbaa !55
  %3 = load ptr, ptr %2, align 8
  %4 = getelementptr inbounds nuw %class.app, ptr %3, i32 0, i32 1
  %5 = load ptr, ptr %4, align 8, !tbaa !74
  ret ptr %5
}

; Function Attrs: inlinehint mustprogress nounwind uwtable
define linkonce_odr hidden noundef ptr @_Z6to_appP3ast(ptr noundef %0) #8 comdat {
  %2 = alloca ptr, align 8
  store ptr %0, ptr %2, align 8, !tbaa !68
  %3 = load ptr, ptr %2, align 8, !tbaa !68
  ret ptr %3
}

; Function Attrs: inlinehint mustprogress uwtable
define linkonce_odr hidden noundef zeroext i1 @_Z6is_appPK3ast(ptr noundef %0) #9 comdat {
  %2 = alloca ptr, align 8
  store ptr %0, ptr %2, align 8, !tbaa !68
  %3 = load ptr, ptr %2, align 8, !tbaa !68
  %4 = call noundef i32 @_ZNK3ast8get_kindEv(ptr noundef nonnull align 4 dereferenceable(16) %3)
  %5 = icmp eq i32 %4, 0
  ret i1 %5
}

; Function Attrs: mustprogress nounwind uwtable
define linkonce_odr hidden noundef ptr @_ZNK7obj_refI4expr11ast_managerEcvPS0_Ev(ptr noundef nonnull align 8 dereferenceable(16) %0) #6 comdat align 2 {
  %2 = alloca ptr, align 8
  store ptr %0, ptr %2, align 8, !tbaa !177
  %3 = load ptr, ptr %2, align 8
  %4 = getelementptr inbounds nuw %class.obj_ref, ptr %3, i32 0, i32 0
  %5 = load ptr, ptr %4, align 8, !tbaa !179
  ret ptr %5
}

; Function Attrs: mustprogress nounwind uwtable
define linkonce_odr hidden noundef i32 @_ZNK3mbp4term6get_idEv(ptr noundef nonnull align 8 dereferenceable(88) %0) #6 comdat align 2 {
  %2 = alloca ptr, align 8
  store ptr %0, ptr %2, align 8, !tbaa !20
  %3 = load ptr, ptr %2, align 8
  %4 = getelementptr inbounds nuw %"class.mbp::term", ptr %3, i32 0, i32 0
  %5 = call noundef ptr @_ZNK7obj_refI4expr11ast_managerEptEv(ptr noundef nonnull align 8 dereferenceable(16) %4)
  %6 = call noundef i32 @_ZNK3ast6get_idEv(ptr noundef nonnull align 4 dereferenceable(16) %5)
  ret i32 %6
}

; Function Attrs: mustprogress nounwind uwtable
define linkonce_odr hidden noundef nonnull align 8 dereferenceable(88) ptr @_ZNK3mbp4term8get_rootEv(ptr noundef nonnull align 8 dereferenceable(88) %0) #6 comdat align 2 {
  %2 = alloca ptr, align 8
  store ptr %0, ptr %2, align 8, !tbaa !20
  %3 = load ptr, ptr %2, align 8
  %4 = getelementptr inbounds nuw %"class.mbp::term", ptr %3, i32 0, i32 1
  %5 = load ptr, ptr %4, align 8, !tbaa !28
  ret ptr %5
}

; Function Attrs: mustprogress uwtable
define linkonce_odr hidden noundef ptr @_ZNK3mbp4term8children3endEv(ptr noundef nonnull align 8 dereferenceable(8) %0) #4 comdat align 2 {
  %2 = alloca ptr, align 8
  store ptr %0, ptr %2, align 8, !tbaa !100
  %3 = load ptr, ptr %2, align 8
  %4 = getelementptr inbounds nuw %"class.mbp::term::children", ptr %3, i32 0, i32 0
  %5 = load ptr, ptr %4, align 8, !tbaa !250
  %6 = getelementptr inbounds nuw %"class.mbp::term", ptr %5, i32 0, i32 6
  %7 = call noundef ptr @_ZNK6vectorIPN3mbp4termELb0EjE3endEv(ptr noundef nonnull align 8 dereferenceable(8) %6)
  ret ptr %7
}

; Function Attrs: mustprogress nounwind uwtable
define linkonce_odr hidden noundef ptr @_ZNK3mbp4term8children5beginEv(ptr noundef nonnull align 8 dereferenceable(8) %0) #6 comdat align 2 {
  %2 = alloca ptr, align 8
  store ptr %0, ptr %2, align 8, !tbaa !100
  %3 = load ptr, ptr %2, align 8
  %4 = getelementptr inbounds nuw %"class.mbp::term::children", ptr %3, i32 0, i32 0
  %5 = load ptr, ptr %4, align 8, !tbaa !250
  %6 = getelementptr inbounds nuw %"class.mbp::term", ptr %5, i32 0, i32 6
  %7 = call noundef ptr @_ZNK6vectorIPN3mbp4termELb0EjE5beginEv(ptr noundef nonnull align 8 dereferenceable(8) %6)
  ret ptr %7
}

; Function Attrs: mustprogress nounwind uwtable
define linkonce_odr hidden void @_ZN3mbp4term8childrenC2EPKS0_(ptr noundef nonnull align 8 dereferenceable(8) %0, ptr noundef %1) unnamed_addr #6 comdat align 2 {
  %3 = alloca ptr, align 8
  %4 = alloca ptr, align 8
  store ptr %0, ptr %3, align 8, !tbaa !100
  store ptr %1, ptr %4, align 8, !tbaa !20
  %5 = load ptr, ptr %3, align 8
  %6 = getelementptr inbounds nuw %"class.mbp::term::children", ptr %5, i32 0, i32 0
  %7 = load ptr, ptr %4, align 8, !tbaa !20
  store ptr %7, ptr %6, align 8, !tbaa !20
  ret void
}

; Function Attrs: mustprogress uwtable
define linkonce_odr hidden noundef i32 @_ZNK3mbp4term11get_decl_idEv(ptr noundef nonnull align 8 dereferenceable(88) %0) #4 comdat align 2 {
  %2 = alloca ptr, align 8
  store ptr %0, ptr %2, align 8, !tbaa !20
  %3 = load ptr, ptr %2, align 8
  %4 = getelementptr inbounds nuw %"class.mbp::term", ptr %3, i32 0, i32 0
  %5 = call noundef ptr @_ZNK7obj_refI4expr11ast_managerEcvPS0_Ev(ptr noundef nonnull align 8 dereferenceable(16) %4)
  %6 = call noundef zeroext i1 @_Z6is_appPK3ast(ptr noundef %5)
  br i1 %6, label %7, label %13

7:                                                ; preds = %1
  %8 = getelementptr inbounds nuw %"class.mbp::term", ptr %3, i32 0, i32 0
  %9 = call noundef ptr @_ZNK7obj_refI4expr11ast_managerEcvPS0_Ev(ptr noundef nonnull align 8 dereferenceable(16) %8)
  %10 = call noundef ptr @_Z6to_appP3ast(ptr noundef %9)
  %11 = call noundef ptr @_ZNK3app8get_declEv(ptr noundef nonnull align 8 dereferenceable(32) %10)
  %12 = call noundef i32 @_ZNK3ast6get_idEv(ptr noundef nonnull align 4 dereferenceable(16) %11)
  br label %17

13:                                               ; preds = %1
  %14 = getelementptr inbounds nuw %"class.mbp::term", ptr %3, i32 0, i32 0
  %15 = call noundef ptr @_ZNK7obj_refI4expr11ast_managerEptEv(ptr noundef nonnull align 8 dereferenceable(16) %14)
  %16 = call noundef i32 @_ZNK3ast6get_idEv(ptr noundef nonnull align 4 dereferenceable(16) %15)
  br label %17

17:                                               ; preds = %13, %7
  %18 = phi i32 [ %12, %7 ], [ %16, %13 ]
  ret i32 %18
}

; Function Attrs: mustprogress uwtable
define linkonce_odr hidden noundef i32 @_ZNK3mbp4term8get_hashEv(ptr noundef nonnull align 8 dereferenceable(88) %0) #4 comdat align 2 {
  %2 = alloca ptr, align 8
  %3 = alloca i32, align 4
  %4 = alloca i32, align 4
  %5 = alloca i32, align 4
  %6 = alloca ptr, align 8
  %7 = alloca %"class.mbp::term::children", align 8
  %8 = alloca ptr, align 8
  %9 = alloca ptr, align 8
  %10 = alloca ptr, align 8
  store ptr %0, ptr %2, align 8, !tbaa !20
  %11 = load ptr, ptr %2, align 8
  call void @llvm.lifetime.start.p0(i64 4, ptr %3) #3
  call void @llvm.lifetime.start.p0(i64 4, ptr %4) #3
  call void @llvm.lifetime.start.p0(i64 4, ptr %5) #3
  %12 = call noundef i32 @_ZNK3mbp4term11get_decl_idEv(ptr noundef nonnull align 8 dereferenceable(88) %11)
  store i32 %12, ptr %5, align 4, !tbaa !27
  store i32 %12, ptr %4, align 4, !tbaa !27
  store i32 %12, ptr %3, align 4, !tbaa !27
  call void @llvm.lifetime.start.p0(i64 8, ptr %6) #3
  call void @llvm.lifetime.start.p0(i64 8, ptr %7) #3
  call void @_ZN3mbp4term8childrenC2EPKS0_(ptr noundef nonnull align 8 dereferenceable(8) %7, ptr noundef %11)
  store ptr %7, ptr %6, align 8, !tbaa !100
  call void @llvm.lifetime.start.p0(i64 8, ptr %8) #3
  %13 = load ptr, ptr %6, align 8, !tbaa !100
  %14 = call noundef ptr @_ZNK3mbp4term8children5beginEv(ptr noundef nonnull align 8 dereferenceable(8) %13)
  store ptr %14, ptr %8, align 8, !tbaa !41
  call void @llvm.lifetime.start.p0(i64 8, ptr %9) #3
  %15 = load ptr, ptr %6, align 8, !tbaa !100
  %16 = call noundef ptr @_ZNK3mbp4term8children3endEv(ptr noundef nonnull align 8 dereferenceable(8) %15)
  store ptr %16, ptr %9, align 8, !tbaa !41
  br label %17

17:                                               ; preds = %118, %1
  %18 = load ptr, ptr %8, align 8, !tbaa !41
  %19 = load ptr, ptr %9, align 8, !tbaa !41
  %20 = icmp ne ptr %18, %19
  br i1 %20, label %22, label %21

21:                                               ; preds = %17
  call void @llvm.lifetime.end.p0(i64 8, ptr %9) #3
  call void @llvm.lifetime.end.p0(i64 8, ptr %8) #3
  call void @llvm.lifetime.end.p0(i64 8, ptr %7) #3
  call void @llvm.lifetime.end.p0(i64 8, ptr %6) #3
  br label %121

22:                                               ; preds = %17
  call void @llvm.lifetime.start.p0(i64 8, ptr %10) #3
  %23 = load ptr, ptr %8, align 8, !tbaa !41
  %24 = load ptr, ptr %23, align 8, !tbaa !20
  store ptr %24, ptr %10, align 8, !tbaa !20
  %25 = load ptr, ptr %10, align 8, !tbaa !20
  %26 = call noundef nonnull align 8 dereferenceable(88) ptr @_ZNK3mbp4term8get_rootEv(ptr noundef nonnull align 8 dereferenceable(88) %25)
  %27 = call noundef i32 @_ZNK3mbp4term6get_idEv(ptr noundef nonnull align 8 dereferenceable(88) %26)
  store i32 %27, ptr %3, align 4, !tbaa !27
  %28 = load i32, ptr %4, align 4, !tbaa !27
  %29 = load i32, ptr %3, align 4, !tbaa !27
  %30 = sub i32 %29, %28
  store i32 %30, ptr %3, align 4, !tbaa !27
  %31 = load i32, ptr %5, align 4, !tbaa !27
  %32 = load i32, ptr %3, align 4, !tbaa !27
  %33 = sub i32 %32, %31
  store i32 %33, ptr %3, align 4, !tbaa !27
  %34 = load i32, ptr %5, align 4, !tbaa !27
  %35 = lshr i32 %34, 13
  %36 = load i32, ptr %3, align 4, !tbaa !27
  %37 = xor i32 %36, %35
  store i32 %37, ptr %3, align 4, !tbaa !27
  %38 = load i32, ptr %5, align 4, !tbaa !27
  %39 = load i32, ptr %4, align 4, !tbaa !27
  %40 = sub i32 %39, %38
  store i32 %40, ptr %4, align 4, !tbaa !27
  %41 = load i32, ptr %3, align 4, !tbaa !27
  %42 = load i32, ptr %4, align 4, !tbaa !27
  %43 = sub i32 %42, %41
  store i32 %43, ptr %4, align 4, !tbaa !27
  %44 = load i32, ptr %3, align 4, !tbaa !27
  %45 = shl i32 %44, 8
  %46 = load i32, ptr %4, align 4, !tbaa !27
  %47 = xor i32 %46, %45
  store i32 %47, ptr %4, align 4, !tbaa !27
  %48 = load i32, ptr %3, align 4, !tbaa !27
  %49 = load i32, ptr %5, align 4, !tbaa !27
  %50 = sub i32 %49, %48
  store i32 %50, ptr %5, align 4, !tbaa !27
  %51 = load i32, ptr %4, align 4, !tbaa !27
  %52 = load i32, ptr %5, align 4, !tbaa !27
  %53 = sub i32 %52, %51
  store i32 %53, ptr %5, align 4, !tbaa !27
  %54 = load i32, ptr %4, align 4, !tbaa !27
  %55 = lshr i32 %54, 13
  %56 = load i32, ptr %5, align 4, !tbaa !27
  %57 = xor i32 %56, %55
  store i32 %57, ptr %5, align 4, !tbaa !27
  %58 = load i32, ptr %4, align 4, !tbaa !27
  %59 = load i32, ptr %3, align 4, !tbaa !27
  %60 = sub i32 %59, %58
  store i32 %60, ptr %3, align 4, !tbaa !27
  %61 = load i32, ptr %5, align 4, !tbaa !27
  %62 = load i32, ptr %3, align 4, !tbaa !27
  %63 = sub i32 %62, %61
  store i32 %63, ptr %3, align 4, !tbaa !27
  %64 = load i32, ptr %5, align 4, !tbaa !27
  %65 = lshr i32 %64, 12
  %66 = load i32, ptr %3, align 4, !tbaa !27
  %67 = xor i32 %66, %65
  store i32 %67, ptr %3, align 4, !tbaa !27
  %68 = load i32, ptr %5, align 4, !tbaa !27
  %69 = load i32, ptr %4, align 4, !tbaa !27
  %70 = sub i32 %69, %68
  store i32 %70, ptr %4, align 4, !tbaa !27
  %71 = load i32, ptr %3, align 4, !tbaa !27
  %72 = load i32, ptr %4, align 4, !tbaa !27
  %73 = sub i32 %72, %71
  store i32 %73, ptr %4, align 4, !tbaa !27
  %74 = load i32, ptr %3, align 4, !tbaa !27
  %75 = shl i32 %74, 16
  %76 = load i32, ptr %4, align 4, !tbaa !27
  %77 = xor i32 %76, %75
  store i32 %77, ptr %4, align 4, !tbaa !27
  %78 = load i32, ptr %3, align 4, !tbaa !27
  %79 = load i32, ptr %5, align 4, !tbaa !27
  %80 = sub i32 %79, %78
  store i32 %80, ptr %5, align 4, !tbaa !27
  %81 = load i32, ptr %4, align 4, !tbaa !27
  %82 = load i32, ptr %5, align 4, !tbaa !27
  %83 = sub i32 %82, %81
  store i32 %83, ptr %5, align 4, !tbaa !27
  %84 = load i32, ptr %4, align 4, !tbaa !27
  %85 = lshr i32 %84, 5
  %86 = load i32, ptr %5, align 4, !tbaa !27
  %87 = xor i32 %86, %85
  store i32 %87, ptr %5, align 4, !tbaa !27
  %88 = load i32, ptr %4, align 4, !tbaa !27
  %89 = load i32, ptr %3, align 4, !tbaa !27
  %90 = sub i32 %89, %88
  store i32 %90, ptr %3, align 4, !tbaa !27
  %91 = load i32, ptr %5, align 4, !tbaa !27
  %92 = load i32, ptr %3, align 4, !tbaa !27
  %93 = sub i32 %92, %91
  store i32 %93, ptr %3, align 4, !tbaa !27
  %94 = load i32, ptr %5, align 4, !tbaa !27
  %95 = lshr i32 %94, 3
  %96 = load i32, ptr %3, align 4, !tbaa !27
  %97 = xor i32 %96, %95
  store i32 %97, ptr %3, align 4, !tbaa !27
  %98 = load i32, ptr %5, align 4, !tbaa !27
  %99 = load i32, ptr %4, align 4, !tbaa !27
  %100 = sub i32 %99, %98
  store i32 %100, ptr %4, align 4, !tbaa !27
  %101 = load i32, ptr %3, align 4, !tbaa !27
  %102 = load i32, ptr %4, align 4, !tbaa !27
  %103 = sub i32 %102, %101
  store i32 %103, ptr %4, align 4, !tbaa !27
  %104 = load i32, ptr %3, align 4, !tbaa !27
  %105 = shl i32 %104, 10
  %106 = load i32, ptr %4, align 4, !tbaa !27
  %107 = xor i32 %106, %105
  store i32 %107, ptr %4, align 4, !tbaa !27
  %108 = load i32, ptr %3, align 4, !tbaa !27
  %109 = load i32, ptr %5, align 4, !tbaa !27
  %110 = sub i32 %109, %108
  store i32 %110, ptr %5, align 4, !tbaa !27
  %111 = load i32, ptr %4, align 4, !tbaa !27
  %112 = load i32, ptr %5, align 4, !tbaa !27
  %113 = sub i32 %112, %111
  store i32 %113, ptr %5, align 4, !tbaa !27
  %114 = load i32, ptr %4, align 4, !tbaa !27
  %115 = lshr i32 %114, 15
  %116 = load i32, ptr %5, align 4, !tbaa !27
  %117 = xor i32 %116, %115
  store i32 %117, ptr %5, align 4, !tbaa !27
  call void @llvm.lifetime.end.p0(i64 8, ptr %10) #3
  br label %118

118:                                              ; preds = %22
  %119 = load ptr, ptr %8, align 8, !tbaa !41
  %120 = getelementptr inbounds nuw ptr, ptr %119, i32 1
  store ptr %120, ptr %8, align 8, !tbaa !41
  br label %17

121:                                              ; preds = %21
  %122 = load i32, ptr %5, align 4, !tbaa !27
  call void @llvm.lifetime.end.p0(i64 4, ptr %5) #3
  call void @llvm.lifetime.end.p0(i64 4, ptr %4) #3
  call void @llvm.lifetime.end.p0(i64 4, ptr %3) #3
  ret i32 %122
}

; Function Attrs: mustprogress uwtable
define hidden noundef i32 @_ZNK3mbp10term_graph9term_hashclEPKNS_4termE(ptr noundef nonnull align 1 dereferenceable(1) %0, ptr noundef %1) #4 align 2 {
  %3 = alloca ptr, align 8
  %4 = alloca ptr, align 8
  store ptr %0, ptr %3, align 8, !tbaa !98
  store ptr %1, ptr %4, align 8, !tbaa !20
  %5 = load ptr, ptr %4, align 8, !tbaa !20
  %6 = call noundef i32 @_ZNK3mbp4term8get_hashEv(ptr noundef nonnull align 8 dereferenceable(88) %5)
  ret i32 %6
}