; Function Attrs: mustprogress nofree norecurse nosync nounwind willreturn memory(read, inaccessiblemem: none) uwtable
define hidden noundef i32 @_ZNK3mbp10term_graph9term_hashclEPKNS_4termE(ptr noundef nonnull readnone align 1 captures(none) dereferenceable(1) %0, ptr noundef readonly captures(none) %1) local_unnamed_addr #8 align 2 {
  %3 = load ptr, ptr %1, align 8, !tbaa !79
  %4 = getelementptr inbounds nuw i8, ptr %3, i64 4
  %5 = load i32, ptr %4, align 4
  %6 = and i32 %5, 65535
  %7 = icmp eq i32 %6, 0
  br i1 %7, label %8, label %_ZNK3mbp4term11get_decl_idEv.exit.i

8:                                                ; preds = %2
  %9 = getelementptr inbounds nuw i8, ptr %3, i64 16
  %10 = load ptr, ptr %9, align 8, !tbaa !48
  br label %_ZNK3mbp4term11get_decl_idEv.exit.i

_ZNK3mbp4term11get_decl_idEv.exit.i:              ; preds = %8, %2
  %.in.i.i = phi ptr [ %10, %8 ], [ %3, %2 ]
  %11 = load i32, ptr %.in.i.i, align 4, !tbaa !94
  %12 = getelementptr inbounds nuw i8, ptr %1, i64 56
  %13 = load ptr, ptr %12, align 8, !tbaa !45
  %14 = icmp eq ptr %13, null
  br i1 %14, label %_ZNK3mbp4term8get_hashEv.exit, label %_ZNK3mbp4term8children3endEv.exit.i

_ZNK3mbp4term8children3endEv.exit.i:              ; preds = %_ZNK3mbp4term11get_decl_idEv.exit.i
  %15 = getelementptr inbounds i8, ptr %13, i64 -4
  %16 = load i32, ptr %15, align 4, !tbaa !34
  %17 = zext i32 %16 to i64
  %18 = getelementptr inbounds nuw ptr, ptr %13, i64 %17
  %.not82.i = icmp eq i32 %16, 0
  br i1 %.not82.i, label %_ZNK3mbp4term8get_hashEv.exit, label %.lr.ph.i

.lr.ph.i:                                         ; preds = %_ZNK3mbp4term8children3endEv.exit.i, %.lr.ph.i
  %.085.i = phi i32 [ %55, %.lr.ph.i ], [ %11, %_ZNK3mbp4term8children3endEv.exit.i ]
  %.06284.i = phi ptr [ %60, %.lr.ph.i ], [ %13, %_ZNK3mbp4term8children3endEv.exit.i ]
  %.06383.i = phi i32 [ %59, %.lr.ph.i ], [ %11, %_ZNK3mbp4term8children3endEv.exit.i ]
  %19 = load ptr, ptr %.06284.i, align 8, !tbaa !46
  %20 = getelementptr inbounds nuw i8, ptr %19, i64 16
  %21 = load ptr, ptr %20, align 8, !tbaa !19
  %22 = load ptr, ptr %21, align 8, !tbaa !79
  %23 = load i32, ptr %22, align 4, !tbaa !94
  %24 = add i32 %.06383.i, %.085.i
  %25 = sub i32 %23, %24
  %26 = lshr i32 %.06383.i, 13
  %27 = xor i32 %25, %26
  %28 = add i32 %.06383.i, %27
  %29 = sub i32 %.085.i, %28
  %30 = shl i32 %27, 8
  %31 = xor i32 %29, %30
  %32 = add i32 %27, %31
  %33 = sub i32 %.06383.i, %32
  %34 = lshr i32 %31, 13
  %35 = xor i32 %33, %34
  %36 = add i32 %31, %35
  %37 = sub i32 %27, %36
  %38 = lshr i32 %35, 12
  %39 = xor i32 %37, %38
  %40 = add i32 %35, %39
  %41 = sub i32 %31, %40
  %42 = shl i32 %39, 16
  %43 = xor i32 %41, %42
  %44 = add i32 %39, %43
  %45 = sub i32 %35, %44
  %46 = lshr i32 %43, 5
  %47 = xor i32 %45, %46
  %48 = add i32 %43, %47
  %49 = sub i32 %39, %48
  %50 = lshr i32 %47, 3
  %51 = xor i32 %49, %50
  %52 = add i32 %47, %51
  %53 = sub i32 %43, %52
  %54 = shl i32 %51, 10
  %55 = xor i32 %53, %54
  %56 = add i32 %51, %55
  %57 = sub i32 %47, %56
  %58 = lshr i32 %55, 15
  %59 = xor i32 %57, %58
  %60 = getelementptr inbounds nuw i8, ptr %.06284.i, i64 8
  %.not.i = icmp eq ptr %60, %18
  br i1 %.not.i, label %_ZNK3mbp4term8get_hashEv.exit, label %.lr.ph.i

_ZNK3mbp4term8get_hashEv.exit:                    ; preds = %.lr.ph.i, %_ZNK3mbp4term11get_decl_idEv.exit.i, %_ZNK3mbp4term8children3endEv.exit.i
  %.063.lcssa.i = phi i32 [ %11, %_ZNK3mbp4term8children3endEv.exit.i ], [ %11, %_ZNK3mbp4term11get_decl_idEv.exit.i ], [ %59, %.lr.ph.i ]
  ret i32 %.063.lcssa.i
}